target datalayout = "e-m:e-p270:32:32-p271:32:32-p272:64:64-i64:64-i128:128-f80:128-n8:16:32:64-S128"
target triple = "x86_64-pc-linux-gnu"

%struct.ImVec2 = type { float, float }
%struct.ImRect = type { %struct.ImVec2, %struct.ImVec2 }
%struct.ImGuiWindow = type <{ ptr, ptr, i32, i32, i32, [4 x i8], ptr, %struct.ImVec2, %struct.ImVec2, %struct.ImVec2, %struct.ImVec2, %struct.ImVec2, %struct.ImVec2, %struct.ImVec2, float, float, float, float, float, float, float, float, float, float, i32, i32, i32, i32, %struct.ImVec2, %struct.ImVec2, %struct.ImVec2, %struct.ImVec2, %struct.ImVec2, %struct.ImVec2, i8, i8, i8, i8, i8, i8, i8, i8, i8, i8, i8, i8, i8, i8, i8, i8, i16, i16, i16, i16, i16, i8, i8, i8, [3 x i8], i32, i8, i8, i8, i8, i32, %struct.ImVec2, %struct.ImVec2, [4 x i8], %struct.ImVector, %struct.ImGuiWindowTempData, %struct.ImRect, %struct.ImRect, %struct.ImRect, %struct.ImRect, %struct.ImRect, %struct.ImRect, %struct.ImRect, %struct.ImVec2ih, %struct.ImVec2ih, i32, float, float, [4 x i8], %struct.ImGuiStorage, %struct.ImVector.3, float, float, float, i32, ptr, %struct.ImDrawList, ptr, ptr, ptr, ptr, ptr, ptr, ptr, ptr, [2 x i32], [2 x %struct.ImRect], [2 x %struct.ImVec2], i32, i32, i32, i8, [3 x i8] }>
%struct.ImVector = type { i32, i32, ptr }
%struct.ImGuiWindowTempData = type { %struct.ImVec2, %struct.ImVec2, %struct.ImVec2, %struct.ImVec2, %struct.ImVec2, %struct.ImVec2, %struct.ImVec2, float, float, i8, i8, %struct.ImVec1, %struct.ImVec1, %struct.ImVec1, %struct.ImVec2, i32, i16, i16, i8, i8, i8, i8, %struct.ImVec2, %struct.ImGuiMenuColumns, i32, i32, %struct.ImVector.0, ptr, ptr, i32, i32, i32, i32, i32, i32, float, float, %struct.ImVector.1, %struct.ImVector.1 }
%struct.ImVec1 = type { float }
%struct.ImGuiMenuColumns = type <{ i32, i32, i16, i16, i16, i16, i16, [4 x i16], [2 x i8] }>
%struct.ImVector.0 = type { i32, i32, ptr }
%struct.ImVector.1 = type { i32, i32, ptr }
%struct.ImVec2ih = type { i16, i16 }
%struct.ImGuiStorage = type { %struct.ImVector.2 }
%struct.ImVector.2 = type { i32, i32, ptr }
%struct.ImVector.3 = type { i32, i32, ptr }
%struct.ImDrawList = type { %struct.ImVector.4, %struct.ImVector.5, %struct.ImVector.6, i32, i32, ptr, ptr, ptr, %struct.ImVector.7, %struct.ImDrawCmdHeader, %struct.ImDrawListSplitter, %struct.ImVector.9, %struct.ImVector.10, %struct.ImVector.11, float, ptr }
%struct.ImVector.4 = type { i32, i32, ptr }
%struct.ImVector.5 = type { i32, i32, ptr }
%struct.ImVector.6 = type { i32, i32, ptr }
%struct.ImVector.7 = type { i32, i32, ptr }
%struct.ImDrawCmdHeader = type <{ %struct.ImVec4, i64, i32, [4 x i8] }>
%struct.ImVec4 = type { float, float, float, float }
%struct.ImDrawListSplitter = type { i32, i32, %struct.ImVector.8 }
%struct.ImVector.8 = type { i32, i32, ptr }
%struct.ImVector.9 = type { i32, i32, ptr }
%struct.ImVector.10 = type { i32, i32, ptr }
%struct.ImVector.11 = type { i32, i32, ptr }
%struct.ImGuiContext = type { i8, i8, %struct.ImGuiIO, %struct.ImGuiPlatformIO, %struct.ImGuiStyle, ptr, float, float, float, float, %struct.ImDrawListSharedData, double, i32, i32, i32, i32, i8, i8, i8, i8, ptr, [16 x i8], %struct.ImVector.12, %struct.ImVector.12, i32, i32, %struct.ImVector.0, %struct.ImVector.0, %struct.ImVector.0, %struct.ImVector.13, %struct.ImGuiStorage, i32, float, i32, ptr, ptr, ptr, ptr, ptr, ptr, %struct.ImVec2, i32, i32, float, %struct.ImVec2, %struct.ImVec2, i32, i32, i32, i32, i32, float, float, i8, i8, i8, i32, i32, float, i8, i8, i8, i8, i8, i8, i8, i8, %struct.ImVec2, ptr, i32, i32, %struct.ImGuiDeactivatedItemData, %struct.ImGuiDataTypeStorage, i32, float, double, double, double, %struct.ImBitArray, [154 x %struct.ImGuiKeyOwnerData], %struct.ImGuiKeyRoutingTable, i32, i8, i32, i32, i32, i32, %struct.ImGuiNextItemData, %struct.ImGuiLastItemData, %struct.ImGuiNextWindowData, i8, i32, %struct.ImVector.15, %struct.ImVector.16, %struct.ImVector.17, %struct.ImVector.18, %struct.ImVector.19, %struct.ImVector.20, %struct.ImVector.21, %struct.ImVector.21, %struct.ImVector.22, %struct.ImVector.23, i8, i8, i8, i8, i32, ptr, i32, i32, i32, i32, i32, i32, %struct.ImVector.18, i32, float, i32, i32, i32, i64, i8, i8, i8, i8, %struct.ImGuiNavItemData, i8, i8, i8, i32, i32, i32, i32, i32, i32, %struct.ImRect, %struct.ImRect, i32, i32, i32, %struct.ImGuiNavItemData, %struct.ImGuiNavItemData, %struct.ImGuiNavItemData, %struct.ImGuiNavItemData, i32, i32, i32, i32, i8, i8, i32, i32, ptr, ptr, ptr, float, float, i8, i32, %struct.ImVec2, %struct.ImVec2, float, i8, i8, i8, i32, i32, i32, [4 x i8], %struct.ImGuiPayload, %struct.ImRect, %struct.ImRect, i32, i32, float, i32, i32, i32, i32, %struct.ImVector.11, [16 x i8], i32, %struct.ImVector.24, ptr, i32, i32, %struct.ImVector.25, %struct.ImPool, %struct.ImVector.1, %struct.ImVector.8, ptr, %struct.ImPool.27, %struct.ImVector.29, %struct.ImVector.30, %struct.ImGuiBoxSelectState, ptr, i32, %struct.ImVector.31, %struct.ImPool.32, i32, i32, float, float, i32, i32, i32, float, %struct.ImVec2, %struct.ImGuiInputTextState, %struct.ImGuiInputTextDeactivatedState, %struct.ImFont, i32, %struct.ImGuiDataTypeStorage, i32, i32, i32, i32, i32, float, float, i32, %struct.ImVec4, %struct.ImGuiComboPreviewData, %struct.ImRect, i8, i16, float, float, float, i8, i8, float, float, float, i16, i16, ptr, %struct.ImVector.34, %struct.ImVector, %struct.ImGuiTypingSelectState, %struct.ImGuiPlatformImeData, %struct.ImGuiPlatformImeData, i8, float, %struct.ImGuiTextBuffer, %struct.ImVector.36, %struct.ImChunkStream, %struct.ImChunkStream.37, %struct.ImVector.38, i32, [10 x ptr], i8, i32, ptr, ptr, %struct.ImGuiTextBuffer, ptr, ptr, float, i8, i32, i32, i32, ptr, ptr, %struct.ImVec2, i8, i32, %struct.ImGuiErrorRecoveryState, ptr, i32, i32, %struct.ImGuiTextBuffer, %struct.ImGuiTextIndex, i32, i32, i8, i8, i8, i32, i8, i8, i8, i32, float, %struct.ImVec4, %struct.ImGuiMetricsConfig, %struct.ImGuiIDStackTool, %struct.ImGuiDebugAllocInfo, [60 x float], i32, i32, float, i32, i32, i32, %struct.ImVector.34, [64 x i8] }
%struct.ImGuiIO = type { i32, i32, %struct.ImVec2, float, float, ptr, ptr, ptr, ptr, float, i8, ptr, %struct.ImVec2, i8, i8, i8, i8, i8, i8, i8, i8, i8, i8, i8, i8, i8, i8, i8, i8, i8, float, float, float, float, float, float, i8, i8, i8, i8, i8, i8, i8, i8, i8, i8, ptr, ptr, ptr, ptr, ptr, i8, i8, i8, i8, i8, i8, i8, float, i32, i32, i32, i32, %struct.ImVec2, ptr, %struct.ImVec2, [5 x i8], float, float, i32, i8, i8, i8, i8, i32, [154 x %struct.ImGuiKeyData], i8, %struct.ImVec2, [5 x %struct.ImVec2], [5 x double], [5 x i8], [5 x i8], [5 x i16], [5 x i16], [5 x i8], [5 x double], [5 x i8], [5 x i8], i8, i8, [5 x float], [5 x float], [5 x float], float, i8, i8, i16, %struct.ImVector.5, ptr, ptr, ptr }
%struct.ImGuiKeyData = type { i8, float, float, float }
%struct.ImGuiPlatformIO = type { ptr, ptr, ptr, ptr, ptr, ptr, ptr, i16, ptr }
%struct.ImGuiStyle = type { float, float, %struct.ImVec2, float, float, float, %struct.ImVec2, %struct.ImVec2, i32, float, float, float, float, %struct.ImVec2, float, float, %struct.ImVec2, %struct.ImVec2, %struct.ImVec2, %struct.ImVec2, float, float, float, float, float, float, float, float, float, float, float, float, float, float, %struct.ImVec2, i32, %struct.ImVec2, %struct.ImVec2, float, %struct.ImVec2, %struct.ImVec2, %struct.ImVec2, %struct.ImVec2, float, i8, i8, i8, float, float, [56 x %struct.ImVec4], float, float, float, i32, i32 }
%struct.ImDrawListSharedData = type <{ %struct.ImVec2, ptr, ptr, float, float, float, float, float, i32, %struct.ImVec4, %struct.ImVector.7, [48 x %struct.ImVec2], float, [64 x i8], [4 x i8] }>
%struct.ImVector.12 = type { i32, i32, ptr }
%struct.ImVector.13 = type { i32, i32, ptr }
%struct.ImGuiDeactivatedItemData = type { i32, i32, i8, i8 }
%struct.ImBitArray = type { [5 x i32] }
%struct.ImGuiKeyOwnerData = type <{ i32, i32, i8, i8, [2 x i8] }>
%struct.ImGuiKeyRoutingTable = type { [154 x i16], %struct.ImVector.14, %struct.ImVector.14 }
%struct.ImVector.14 = type { i32, i32, ptr }
%struct.ImGuiNextItemData = type <{ i32, i32, i32, [4 x i8], i64, float, i32, i32, i8, i8, %struct.ImGuiDataTypeStorage, [2 x i8], i32, [4 x i8] }>
%struct.ImGuiLastItemData = type { i32, i32, i32, %struct.ImRect, %struct.ImRect, %struct.ImRect, %struct.ImRect, i32 }
%struct.ImGuiNextWindowData = type { i32, i32, i32, i32, %struct.ImVec2, %struct.ImVec2, %struct.ImVec2, %struct.ImVec2, %struct.ImVec2, i32, i32, i8, %struct.ImRect, ptr, ptr, float, %struct.ImVec2, i32 }
%struct.ImVector.15 = type { i32, i32, ptr }
%struct.ImVector.16 = type { i32, i32, ptr }
%struct.ImVector.17 = type { i32, i32, ptr }
%struct.ImVector.19 = type { i32, i32, ptr }
%struct.ImVector.20 = type { i32, i32, ptr }
%struct.ImVector.21 = type { i32, i32, ptr }
%struct.ImVector.22 = type { i32, i32, ptr }
%struct.ImVector.23 = type { i32, i32, ptr }
%struct.ImVector.18 = type { i32, i32, ptr }
%struct.ImGuiNavItemData = type { ptr, i32, i32, %struct.ImRect, i32, float, float, float, i64 }
%struct.ImGuiPayload = type <{ ptr, i32, i32, i32, i32, [33 x i8], i8, i8, [5 x i8] }>
%struct.ImVector.24 = type { i32, i32, ptr }
%struct.ImVector.25 = type { i32, i32, ptr }
%struct.ImPool = type { %struct.ImVector.26, %struct.ImGuiStorage, i32, i32 }
%struct.ImVector.26 = type { i32, i32, ptr }
%struct.ImPool.27 = type { %struct.ImVector.28, %struct.ImGuiStorage, i32, i32 }
%struct.ImVector.28 = type { i32, i32, ptr }
%struct.ImVector.29 = type { i32, i32, ptr }
%struct.ImVector.30 = type { i32, i32, ptr }
%struct.ImGuiBoxSelectState = type <{ i32, i8, i8, i8, i8, i8, i16, i8, %struct.ImVec2, %struct.ImVec2, %struct.ImVec2, [4 x i8], ptr, i8, [3 x i8], %struct.ImRect, %struct.ImRect, %struct.ImRect, [4 x i8] }>
%struct.ImVector.31 = type { i32, i32, ptr }
%struct.ImPool.32 = type { %struct.ImVector.33, %struct.ImGuiStorage, i32, i32 }
%struct.ImVector.33 = type { i32, i32, ptr }
%struct.ImGuiInputTextState = type <{ ptr, ptr, i32, i32, i32, [4 x i8], ptr, %struct.ImVector.34, %struct.ImVector.34, %struct.ImVector.34, i32, %struct.ImVec2, float, i8, i8, i8, i8, i32, i32, [4 x i8] }>
%struct.ImGuiInputTextDeactivatedState = type { i32, %struct.ImVector.34 }
%struct.ImFont = type <{ %struct.ImVector.1, float, float, %struct.ImVector.5, %struct.ImVector.35, ptr, ptr, ptr, i16, i16, i16, i16, float, float, float, float, float, i32, i8, [1 x i8], [6 x i8] }>
%struct.ImVector.35 = type { i32, i32, ptr }
%struct.ImGuiDataTypeStorage = type { [8 x i8] }
%struct.ImGuiComboPreviewData = type { %struct.ImRect, %struct.ImVec2, %struct.ImVec2, %struct.ImVec2, float, i32 }
%struct.ImGuiTypingSelectState = type <{ %struct.ImGuiTypingSelectRequest, [64 x i8], i32, i32, float, i8, [3 x i8] }>
%struct.ImGuiTypingSelectRequest = type { i32, i32, ptr, i8, i8, i8 }
%struct.ImGuiPlatformImeData = type { i8, %struct.ImVec2, float }
%struct.ImVector.36 = type { i32, i32, ptr }
%struct.ImChunkStream = type { %struct.ImVector.34 }
%struct.ImChunkStream.37 = type { %struct.ImVector.34 }
%struct.ImVector.38 = type { i32, i32, ptr }
%struct.ImGuiErrorRecoveryState = type { i16, i16, i16, i16, i16, i16, i16, i16, i16, i16, i16 }
%struct.ImGuiTextBuffer = type { %struct.ImVector.34 }
%struct.ImGuiTextIndex = type <{ %struct.ImVector.19, i32, [4 x i8] }>
%struct.ImGuiMetricsConfig = type { i8, i8, i8, i8, i8, i8, i8, i8, i8, i32, i32, i32, i32 }
%struct.ImGuiIDStackTool = type { i32, i32, i32, %struct.ImVector.39, i8, float }
%struct.ImVector.39 = type { i32, i32, ptr }
%struct.ImGuiDebugAllocInfo = type { i32, i32, i16, [6 x %struct.ImGuiDebugAllocEntry] }
%struct.ImGuiDebugAllocEntry = type { i32, i16, i16 }
%struct.ImVector.34 = type { i32, i32, ptr }
%struct.ImGuiTabBar = type { ptr, %struct.ImVector.47, i32, i32, i32, i32, i32, i32, i32, %struct.ImRect, float, float, float, float, float, float, float, float, float, float, float, float, i32, i16, i8, i8, i8, i8, i16, i16, float, %struct.ImVec2, %struct.ImVec2, %struct.ImGuiTextBuffer }
%struct.ImVector.47 = type { i32, i32, ptr }

@GImGui = external global ptr, align 8

; Function Attrs: mustprogress nounwind uwtable
define linkonce_odr void @_ZN6ImVec2C2Eff(ptr noundef nonnull align 4 dereferenceable(8) %0, float noundef %1, float noundef %2) unnamed_addr #4 comdat align 2 {
  %4 = alloca ptr, align 8
  %5 = alloca float, align 4
  %6 = alloca float, align 4
  store ptr %0, ptr %4, align 8, !tbaa !175
  store float %1, ptr %5, align 4, !tbaa !69
  store float %2, ptr %6, align 4, !tbaa !69
  %7 = load ptr, ptr %4, align 8
  %8 = getelementptr inbounds nuw %struct.ImVec2, ptr %7, i32 0, i32 0
  %9 = load float, ptr %5, align 4, !tbaa !69
  store float %9, ptr %8, align 4, !tbaa !166
  %10 = getelementptr inbounds nuw %struct.ImVec2, ptr %7, i32 0, i32 1
  %11 = load float, ptr %6, align 4, !tbaa !69
  store float %11, ptr %10, align 4, !tbaa !165
  ret void
}

; Function Attrs: mustprogress uwtable
define linkonce_odr void @_ZN6ImRectC2Effff(ptr noundef nonnull align 4 dereferenceable(16) %0, float noundef %1, float noundef %2, float noundef %3, float noundef %4) unnamed_addr #9 comdat align 2 {
  %6 = alloca ptr, align 8
  %7 = alloca float, align 4
  %8 = alloca float, align 4
  %9 = alloca float, align 4
  %10 = alloca float, align 4
  store ptr %0, ptr %6, align 8, !tbaa !176
  store float %1, ptr %7, align 4, !tbaa !69
  store float %2, ptr %8, align 4, !tbaa !69
  store float %3, ptr %9, align 4, !tbaa !69
  store float %4, ptr %10, align 4, !tbaa !69
  %11 = load ptr, ptr %6, align 8
  %12 = getelementptr inbounds nuw %struct.ImRect, ptr %11, i32 0, i32 0
  %13 = load float, ptr %7, align 4, !tbaa !69
  %14 = load float, ptr %8, align 4, !tbaa !69
  call void @_ZN6ImVec2C2Eff(ptr noundef nonnull align 4 dereferenceable(8) %12, float noundef %13, float noundef %14)
  %15 = getelementptr inbounds nuw %struct.ImRect, ptr %11, i32 0, i32 1
  %16 = load float, ptr %9, align 4, !tbaa !69
  %17 = load float, ptr %10, align 4, !tbaa !69
  call void @_ZN6ImVec2C2Eff(ptr noundef nonnull align 4 dereferenceable(8) %15, float noundef %16, float noundef %17)
  ret void
}

; Function Attrs: mustprogress uwtable
define noundef zeroext i1 @_ZN5ImGui11BeginTabBarEPKci(ptr noundef %0, i32 noundef %1) #9 {
  %3 = alloca i1, align 1
  %4 = alloca ptr, align 8
  %5 = alloca i32, align 4
  %6 = alloca ptr, align 8
  %7 = alloca ptr, align 8
  %8 = alloca i32, align 4
  %9 = alloca i32, align 4
  %10 = alloca ptr, align 8
  %11 = alloca %struct.ImRect, align 4
  store ptr %0, ptr %4, align 8, !tbaa !3
  store i32 %1, ptr %5, align 4, !tbaa !8
  call void @llvm.lifetime.start.p0(i64 8, ptr %6) #17
  %12 = load ptr, ptr @GImGui, align 8, !tbaa !64
  store ptr %12, ptr %6, align 8, !tbaa !64
  call void @llvm.lifetime.start.p0(i64 8, ptr %7) #17
  %13 = load ptr, ptr %6, align 8, !tbaa !64
  %14 = getelementptr inbounds nuw %struct.ImGuiContext, ptr %13, i32 0, i32 34
  %15 = load ptr, ptr %14, align 8, !tbaa !173
  store ptr %15, ptr %7, align 8, !tbaa !10
  %16 = load ptr, ptr %7, align 8, !tbaa !10
  %17 = getelementptr inbounds nuw %struct.ImGuiWindow, ptr %16, i32 0, i32 41
  %18 = load i8, ptr %17, align 1, !tbaa !12, !range !62, !noundef !63
  %19 = trunc i8 %18 to i1
  br i1 %19, label %20, label %21

20:                                               ; preds = %2
  store i1 false, ptr %3, align 1
  store i32 1, ptr %8, align 4
  br label %97

21:                                               ; preds = %2
  call void @llvm.lifetime.start.p0(i64 4, ptr %9) #17
  %22 = load ptr, ptr %7, align 8, !tbaa !10
  %23 = load ptr, ptr %4, align 8, !tbaa !3
  %24 = call noundef i32 @_ZN11ImGuiWindow5GetIDEPKcS1_(ptr noundef nonnull align 8 dereferenceable(1061) %22, ptr noundef %23, ptr noundef null)
  store i32 %24, ptr %9, align 4, !tbaa !8
  call void @llvm.lifetime.start.p0(i64 8, ptr %10) #17
  %25 = load ptr, ptr %6, align 8, !tbaa !64
  %26 = getelementptr inbounds nuw %struct.ImGuiContext, ptr %25, i32 0, i32 191
  %27 = load i32, ptr %9, align 4, !tbaa !8
  %28 = call noundef ptr @_ZN6ImPoolI11ImGuiTabBarE13GetOrAddByKeyEj(ptr noundef nonnull align 8 dereferenceable(40) %26, i32 noundef %27)
  store ptr %28, ptr %10, align 8, !tbaa !833
  call void @llvm.lifetime.start.p0(i64 16, ptr %11) #17
  %29 = load ptr, ptr %7, align 8, !tbaa !10
  %30 = getelementptr inbounds nuw %struct.ImGuiWindow, ptr %29, i32 0, i32 69
  %31 = getelementptr inbounds nuw %struct.ImGuiWindowTempData, ptr %30, i32 0, i32 0
  %32 = getelementptr inbounds nuw %struct.ImVec2, ptr %31, i32 0, i32 0
  %33 = load float, ptr %32, align 8, !tbaa !65
  %34 = load ptr, ptr %7, align 8, !tbaa !10
  %35 = getelementptr inbounds nuw %struct.ImGuiWindow, ptr %34, i32 0, i32 69
  %36 = getelementptr inbounds nuw %struct.ImGuiWindowTempData, ptr %35, i32 0, i32 0
  %37 = getelementptr inbounds nuw %struct.ImVec2, ptr %36, i32 0, i32 1
  %38 = load float, ptr %37, align 4, !tbaa !66
  %39 = load ptr, ptr %7, align 8, !tbaa !10
  %40 = getelementptr inbounds nuw %struct.ImGuiWindow, ptr %39, i32 0, i32 73
  %41 = getelementptr inbounds nuw %struct.ImRect, ptr %40, i32 0, i32 1
  %42 = getelementptr inbounds nuw %struct.ImVec2, ptr %41, i32 0, i32 0
  %43 = load float, ptr %42, align 8, !tbaa !309
  %44 = load ptr, ptr %7, align 8, !tbaa !10
  %45 = getelementptr inbounds nuw %struct.ImGuiWindow, ptr %44, i32 0, i32 69
  %46 = getelementptr inbounds nuw %struct.ImGuiWindowTempData, ptr %45, i32 0, i32 0
  %47 = getelementptr inbounds nuw %struct.ImVec2, ptr %46, i32 0, i32 1
  %48 = load float, ptr %47, align 4, !tbaa !66
  %49 = load ptr, ptr %6, align 8, !tbaa !64
  %50 = getelementptr inbounds nuw %struct.ImGuiContext, ptr %49, i32 0, i32 6
  %51 = load float, ptr %50, align 8, !tbaa !186
  %52 = fadd float %48, %51
  %53 = load ptr, ptr %6, align 8, !tbaa !64
  %54 = getelementptr inbounds nuw %struct.ImGuiContext, ptr %53, i32 0, i32 4
  %55 = getelementptr inbounds nuw %struct.ImGuiStyle, ptr %54, i32 0, i32 13
  %56 = getelementptr inbounds nuw %struct.ImVec2, ptr %55, i32 0, i32 1
  %57 = load float, ptr %56, align 4, !tbaa !230
  %58 = call float @llvm.fmuladd.f32(float %57, float 2.000000e+00, float %52)
  call void @_ZN6ImRectC2Effff(ptr noundef nonnull align 4 dereferenceable(16) %11, float noundef %33, float noundef %38, float noundef %43, float noundef %58)
  %59 = load i32, ptr %9, align 4, !tbaa !8
  %60 = load ptr, ptr %10, align 8, !tbaa !833
  %61 = getelementptr inbounds nuw %struct.ImGuiTabBar, ptr %60, i32 0, i32 3
  store i32 %59, ptr %61, align 4, !tbaa !847
  %62 = load ptr, ptr %10, align 8, !tbaa !833
  %63 = getelementptr inbounds nuw %struct.ImGuiTabBar, ptr %62, i32 0, i32 9
  %64 = getelementptr inbounds nuw %struct.ImRect, ptr %63, i32 0, i32 0
  %65 = getelementptr inbounds nuw %struct.ImVec2, ptr %64, i32 0, i32 0
  %66 = load float, ptr %65, align 4, !tbaa !848
  %67 = load ptr, ptr %7, align 8, !tbaa !10
  %68 = getelementptr inbounds nuw %struct.ImGuiWindow, ptr %67, i32 0, i32 13
  %69 = getelementptr inbounds nuw %struct.ImVec2, ptr %68, i32 0, i32 0
  %70 = load float, ptr %69, align 8, !tbaa !607
  %71 = fmul float %70, 5.000000e-01
  %72 = fptosi float %71 to i32
  %73 = sitofp i32 %72 to float
  %74 = fsub float %66, %73
  %75 = load ptr, ptr %10, align 8, !tbaa !833
  %76 = getelementptr inbounds nuw %struct.ImGuiTabBar, ptr %75, i32 0, i32 20
  store float %74, ptr %76, align 4, !tbaa !849
  %77 = load ptr, ptr %10, align 8, !tbaa !833
  %78 = getelementptr inbounds nuw %struct.ImGuiTabBar, ptr %77, i32 0, i32 9
  %79 = getelementptr inbounds nuw %struct.ImRect, ptr %78, i32 0, i32 1
  %80 = getelementptr inbounds nuw %struct.ImVec2, ptr %79, i32 0, i32 0
  %81 = load float, ptr %80, align 4, !tbaa !850
  %82 = load ptr, ptr %7, align 8, !tbaa !10
  %83 = getelementptr inbounds nuw %struct.ImGuiWindow, ptr %82, i32 0, i32 13
  %84 = getelementptr inbounds nuw %struct.ImVec2, ptr %83, i32 0, i32 0
  %85 = load float, ptr %84, align 8, !tbaa !607
  %86 = fmul float %85, 5.000000e-01
  %87 = fptosi float %86 to i32
  %88 = sitofp i32 %87 to float
  %89 = fadd float %81, %88
  %90 = load ptr, ptr %10, align 8, !tbaa !833
  %91 = getelementptr inbounds nuw %struct.ImGuiTabBar, ptr %90, i32 0, i32 21
  store float %89, ptr %91, align 8, !tbaa !851
  %92 = load i32, ptr %5, align 4, !tbaa !8
  %93 = or i32 %92, 2097152
  store i32 %93, ptr %5, align 4, !tbaa !8
  %94 = load ptr, ptr %10, align 8, !tbaa !833
  %95 = load i32, ptr %5, align 4, !tbaa !8
  %96 = call noundef zeroext i1 @_ZN5ImGui13BeginTabBarExEP11ImGuiTabBarRK6ImRecti(ptr noundef %94, ptr noundef nonnull align 4 dereferenceable(16) %11, i32 noundef %95)
  store i1 %96, ptr %3, align 1
  store i32 1, ptr %8, align 4
  call void @llvm.lifetime.end.p0(i64 16, ptr %11) #17
  call void @llvm.lifetime.end.p0(i64 8, ptr %10) #17
  call void @llvm.lifetime.end.p0(i64 4, ptr %9) #17
  br label %97

97:                                               ; preds = %21, %20
  call void @llvm.lifetime.end.p0(i64 8, ptr %7) #17
  call void @llvm.lifetime.end.p0(i64 8, ptr %6) #17
  %98 = load i1, ptr %3, align 1
  ret i1 %98
}