; Function Attrs: mustprogress uwtable
define noundef zeroext i1 @_ZN5ImGui11BeginTabBarEPKci(ptr noundef %0, i32 noundef %1) local_unnamed_addr #6 {
  %3 = alloca %struct.ImRect, align 4
  %4 = load ptr, ptr @GImGui, align 8, !tbaa !3
  %5 = getelementptr inbounds nuw i8, ptr %4, i64 5016
  %6 = load ptr, ptr %5, align 8, !tbaa !8
  %7 = getelementptr inbounds nuw i8, ptr %6, i64 207
  %8 = load i8, ptr %7, align 1, !tbaa !152, !range !153, !noundef !154
  %9 = trunc nuw i8 %8 to i1
  br i1 %9, label %45, label %10

10:                                               ; preds = %2
  %11 = tail call noundef i32 @_ZN11ImGuiWindow5GetIDEPKcS1_(ptr noundef nonnull align 8 dereferenceable(1061) %6, ptr noundef %0, ptr noundef null)
  %12 = getelementptr inbounds nuw i8, ptr %4, i64 8752
  %13 = tail call noundef ptr @_ZN6ImPoolI11ImGuiTabBarE13GetOrAddByKeyEj(ptr noundef nonnull align 8 dereferenceable(40) %12, i32 noundef %11)
  call void @llvm.lifetime.start.p0(i64 16, ptr nonnull %3) #44
  %14 = getelementptr inbounds nuw i8, ptr %6, i64 280
  %15 = load float, ptr %14, align 8, !tbaa !155
  %16 = getelementptr inbounds nuw i8, ptr %6, i64 284
  %17 = load float, ptr %16, align 4, !tbaa !156
  %18 = getelementptr inbounds nuw i8, ptr %6, i64 576
  %19 = load float, ptr %18, align 8, !tbaa !283
  %20 = getelementptr inbounds nuw i8, ptr %4, i64 4272
  %21 = load float, ptr %20, align 8, !tbaa !173
  %22 = fadd float %17, %21
  %23 = getelementptr inbounds nuw i8, ptr %4, i64 3164
  %24 = load float, ptr %23, align 4, !tbaa !213
  %25 = tail call float @llvm.fmuladd.f32(float %24, float 2.000000e+00, float %22)
  store float %15, ptr %3, align 4, !tbaa !159
  %26 = getelementptr inbounds nuw i8, ptr %3, i64 4
  store float %17, ptr %26, align 4, !tbaa !160
  %27 = getelementptr inbounds nuw i8, ptr %3, i64 8
  store float %19, ptr %27, align 4, !tbaa !159
  %28 = getelementptr inbounds nuw i8, ptr %3, i64 12
  store float %25, ptr %28, align 4, !tbaa !160
  %29 = getelementptr inbounds nuw i8, ptr %13, i64 28
  store i32 %11, ptr %29, align 4, !tbaa !738
  %30 = getelementptr inbounds nuw i8, ptr %13, i64 52
  %31 = load float, ptr %30, align 4, !tbaa !739
  %32 = getelementptr inbounds nuw i8, ptr %6, i64 88
  %33 = load float, ptr %32, align 8, !tbaa !543
  %34 = fmul float %33, 5.000000e-01
  %35 = fptosi float %34 to i32
  %36 = sitofp i32 %35 to float
  %37 = fsub float %31, %36
  %38 = getelementptr inbounds nuw i8, ptr %13, i64 108
  store float %37, ptr %38, align 4, !tbaa !740
  %39 = getelementptr inbounds nuw i8, ptr %13, i64 60
  %40 = load float, ptr %39, align 4, !tbaa !741
  %41 = fadd float %40, %36
  %42 = getelementptr inbounds nuw i8, ptr %13, i64 112
  store float %41, ptr %42, align 8, !tbaa !742
  %43 = or i32 %1, 2097152
  %44 = call noundef zeroext i1 @_ZN5ImGui13BeginTabBarExEP11ImGuiTabBarRK6ImRecti(ptr noundef %13, ptr noundef nonnull align 4 dereferenceable(16) %3, i32 noundef %43)
  call void @llvm.lifetime.end.p0(i64 16, ptr nonnull %3) #44
  br label %45

45:                                               ; preds = %2, %10
  %.0 = phi i1 [ %44, %10 ], [ false, %2 ]
  ret i1 %.0
}